target datalayout = "e-m:e-p270:32:32-p271:32:32-p272:64:64-i64:64-i128:128-f80:128-n8:16:32:64-S128"
target triple = "x86_64-pc-linux-gnu"

%"class.llvm::ArrayRef.465" = type { ptr, i64 }
%"struct.__gnu_cxx::__ops::_Iter_pred" = type { i8 }
%"struct.__gnu_cxx::__ops::_Iter_negate" = type { i8 }

; Function Attrs: mustprogress nounwind uwtable
define internal noundef zeroext i1 @"_ZZNK4llvm8Constant13getSplatValueEbENK3$_0clEi"(ptr noundef nonnull align 1 dereferenceable(1) %0, i32 noundef %1) #1 align 2 {
  %3 = alloca ptr, align 8
  %4 = alloca i32, align 4
  store ptr %0, ptr %3, align 8
  store i32 %1, ptr %4, align 4
  %5 = load i32, ptr %4, align 4
  %6 = icmp eq i32 %5, 0
  ret i1 %6
}

; Function Attrs: mustprogress nounwind uwtable
define internal noundef zeroext i1 @"_ZN9__gnu_cxx5__ops12_Iter_negateIZNK4llvm8Constant13getSplatValueEbE3$_0EclIPKiEEbT_"(ptr noundef nonnull align 1 dereferenceable(1) %0, ptr noundef %1) #1 align 2 {
  %3 = alloca ptr, align 8
  %4 = alloca ptr, align 8
  store ptr %0, ptr %3, align 8
  store ptr %1, ptr %4, align 8
  %5 = load ptr, ptr %3, align 8
  %6 = load ptr, ptr %4, align 8
  %7 = load i32, ptr %6, align 4
  %8 = call noundef zeroext i1 @"_ZZNK4llvm8Constant13getSplatValueEbENK3$_0clEi"(ptr noundef nonnull align 1 dereferenceable(1) %5, i32 noundef %7)
  %9 = xor i1 %8, true
  ret i1 %9
}

; Function Attrs: mustprogress nounwind uwtable
define internal void @"_ZN9__gnu_cxx5__ops12_Iter_negateIZNK4llvm8Constant13getSplatValueEbE3$_0EC2ES4_"(ptr noundef nonnull align 1 dereferenceable(1) %0) unnamed_addr #1 align 2 {
  %2 = alloca ptr, align 8
  store ptr %0, ptr %2, align 8
  ret void
}

; Function Attrs: mustprogress nounwind uwtable
define internal noundef ptr @"_ZSt9__find_ifIPKiN9__gnu_cxx5__ops12_Iter_negateIZNK4llvm8Constant13getSplatValueEbE3$_0EEET_S9_S9_T0_St26random_access_iterator_tag"(ptr noundef %0, ptr noundef %1) #1 {
  %3 = alloca ptr, align 8
  %4 = alloca %"struct.__gnu_cxx::__ops::_Iter_negate", align 1
  %5 = alloca ptr, align 8
  %6 = alloca ptr, align 8
  %7 = alloca i64, align 8
  store ptr %0, ptr %5, align 8
  store ptr %1, ptr %6, align 8
  %8 = load ptr, ptr %6, align 8
  %9 = load ptr, ptr %5, align 8
  %10 = ptrtoint ptr %8 to i64
  %11 = ptrtoint ptr %9 to i64
  %12 = sub i64 %10, %11
  %13 = sdiv exact i64 %12, 4
  %14 = ashr i64 %13, 2
  store i64 %14, ptr %7, align 8
  br label %15

15:                                               ; preds = %47, %2
  %16 = load i64, ptr %7, align 8
  %17 = icmp sgt i64 %16, 0
  br i1 %17, label %18, label %50

18:                                               ; preds = %15
  %19 = load ptr, ptr %5, align 8
  %20 = call noundef zeroext i1 @"_ZN9__gnu_cxx5__ops12_Iter_negateIZNK4llvm8Constant13getSplatValueEbE3$_0EclIPKiEEbT_"(ptr noundef nonnull align 1 dereferenceable(1) %4, ptr noundef %19)
  br i1 %20, label %21, label %23

21:                                               ; preds = %18
  %22 = load ptr, ptr %5, align 8
  store ptr %22, ptr %3, align 8
  br label %84

23:                                               ; preds = %18
  %24 = load ptr, ptr %5, align 8
  %25 = getelementptr inbounds i32, ptr %24, i32 1
  store ptr %25, ptr %5, align 8
  %26 = load ptr, ptr %5, align 8
  %27 = call noundef zeroext i1 @"_ZN9__gnu_cxx5__ops12_Iter_negateIZNK4llvm8Constant13getSplatValueEbE3$_0EclIPKiEEbT_"(ptr noundef nonnull align 1 dereferenceable(1) %4, ptr noundef %26)
  br i1 %27, label %28, label %30

28:                                               ; preds = %23
  %29 = load ptr, ptr %5, align 8
  store ptr %29, ptr %3, align 8
  br label %84

30:                                               ; preds = %23
  %31 = load ptr, ptr %5, align 8
  %32 = getelementptr inbounds i32, ptr %31, i32 1
  store ptr %32, ptr %5, align 8
  %33 = load ptr, ptr %5, align 8
  %34 = call noundef zeroext i1 @"_ZN9__gnu_cxx5__ops12_Iter_negateIZNK4llvm8Constant13getSplatValueEbE3$_0EclIPKiEEbT_"(ptr noundef nonnull align 1 dereferenceable(1) %4, ptr noundef %33)
  br i1 %34, label %35, label %37

35:                                               ; preds = %30
  %36 = load ptr, ptr %5, align 8
  store ptr %36, ptr %3, align 8
  br label %84

37:                                               ; preds = %30
  %38 = load ptr, ptr %5, align 8
  %39 = getelementptr inbounds i32, ptr %38, i32 1
  store ptr %39, ptr %5, align 8
  %40 = load ptr, ptr %5, align 8
  %41 = call noundef zeroext i1 @"_ZN9__gnu_cxx5__ops12_Iter_negateIZNK4llvm8Constant13getSplatValueEbE3$_0EclIPKiEEbT_"(ptr noundef nonnull align 1 dereferenceable(1) %4, ptr noundef %40)
  br i1 %41, label %42, label %44

42:                                               ; preds = %37
  %43 = load ptr, ptr %5, align 8
  store ptr %43, ptr %3, align 8
  br label %84

44:                                               ; preds = %37
  %45 = load ptr, ptr %5, align 8
  %46 = getelementptr inbounds i32, ptr %45, i32 1
  store ptr %46, ptr %5, align 8
  br label %47

47:                                               ; preds = %44
  %48 = load i64, ptr %7, align 8
  %49 = add nsw i64 %48, -1
  store i64 %49, ptr %7, align 8
  br label %15, !llvm.loop !108

50:                                               ; preds = %15
  %51 = load ptr, ptr %6, align 8
  %52 = load ptr, ptr %5, align 8
  %53 = ptrtoint ptr %51 to i64
  %54 = ptrtoint ptr %52 to i64
  %55 = sub i64 %53, %54
  %56 = sdiv exact i64 %55, 4
  switch i64 %56, label %82 [
    i64 3, label %57
    i64 2, label %65
    i64 1, label %73
    i64 0, label %81
  ]

57:                                               ; preds = %50
  %58 = load ptr, ptr %5, align 8
  %59 = call noundef zeroext i1 @"_ZN9__gnu_cxx5__ops12_Iter_negateIZNK4llvm8Constant13getSplatValueEbE3$_0EclIPKiEEbT_"(ptr noundef nonnull align 1 dereferenceable(1) %4, ptr noundef %58)
  br i1 %59, label %60, label %62

60:                                               ; preds = %57
  %61 = load ptr, ptr %5, align 8
  store ptr %61, ptr %3, align 8
  br label %84

62:                                               ; preds = %57
  %63 = load ptr, ptr %5, align 8
  %64 = getelementptr inbounds i32, ptr %63, i32 1
  store ptr %64, ptr %5, align 8
  br label %65

65:                                               ; preds = %62, %50
  %66 = load ptr, ptr %5, align 8
  %67 = call noundef zeroext i1 @"_ZN9__gnu_cxx5__ops12_Iter_negateIZNK4llvm8Constant13getSplatValueEbE3$_0EclIPKiEEbT_"(ptr noundef nonnull align 1 dereferenceable(1) %4, ptr noundef %66)
  br i1 %67, label %68, label %70

68:                                               ; preds = %65
  %69 = load ptr, ptr %5, align 8
  store ptr %69, ptr %3, align 8
  br label %84

70:                                               ; preds = %65
  %71 = load ptr, ptr %5, align 8
  %72 = getelementptr inbounds i32, ptr %71, i32 1
  store ptr %72, ptr %5, align 8
  br label %73

73:                                               ; preds = %70, %50
  %74 = load ptr, ptr %5, align 8
  %75 = call noundef zeroext i1 @"_ZN9__gnu_cxx5__ops12_Iter_negateIZNK4llvm8Constant13getSplatValueEbE3$_0EclIPKiEEbT_"(ptr noundef nonnull align 1 dereferenceable(1) %4, ptr noundef %74)
  br i1 %75, label %76, label %78

76:                                               ; preds = %73
  %77 = load ptr, ptr %5, align 8
  store ptr %77, ptr %3, align 8
  br label %84

78:                                               ; preds = %73
  %79 = load ptr, ptr %5, align 8
  %80 = getelementptr inbounds i32, ptr %79, i32 1
  store ptr %80, ptr %5, align 8
  br label %81

81:                                               ; preds = %78, %50
  br label %82

82:                                               ; preds = %81, %50
  %83 = load ptr, ptr %6, align 8
  store ptr %83, ptr %3, align 8
  br label %84

84:                                               ; preds = %82, %76, %68, %60, %42, %35, %28, %21
  %85 = load ptr, ptr %3, align 8
  ret ptr %85
}

; Function Attrs: mustprogress nounwind uwtable
define linkonce_odr void @_ZSt19__iterator_categoryIPKiENSt15iterator_traitsIT_E17iterator_categoryERKS3_(ptr noundef nonnull align 8 dereferenceable(8) %0) #1 comdat {
  %2 = alloca ptr, align 8
  store ptr %0, ptr %2, align 8
  ret void
}

; Function Attrs: mustprogress nounwind uwtable
define internal void @"_ZN9__gnu_cxx5__ops8__negateIZNK4llvm8Constant13getSplatValueEbE3$_0EENS0_12_Iter_negateIT_EENS0_10_Iter_predIS6_EE"() #1 {
  %1 = alloca %"struct.__gnu_cxx::__ops::_Iter_negate", align 1
  call void @"_ZN9__gnu_cxx5__ops12_Iter_negateIZNK4llvm8Constant13getSplatValueEbE3$_0EC2ES4_"(ptr noundef nonnull align 1 dereferenceable(1) %1)
  ret void
}

; Function Attrs: mustprogress nounwind uwtable
define internal void @"_ZN9__gnu_cxx5__ops10_Iter_predIZNK4llvm8Constant13getSplatValueEbE3$_0EC2ES4_"(ptr noundef nonnull align 1 dereferenceable(1) %0) unnamed_addr #1 align 2 {
  %2 = alloca ptr, align 8
  store ptr %0, ptr %2, align 8
  ret void
}

; Function Attrs: mustprogress nounwind uwtable
define linkonce_odr hidden noundef ptr @_ZNK4llvm8ArrayRefIiE3endEv(ptr noundef nonnull align 8 dereferenceable(16) %0) #1 comdat align 2 {
  %2 = alloca ptr, align 8
  store ptr %0, ptr %2, align 8
  %3 = load ptr, ptr %2, align 8
  %4 = getelementptr inbounds nuw %"class.llvm::ArrayRef.465", ptr %3, i32 0, i32 0
  %5 = load ptr, ptr %4, align 8
  %6 = getelementptr inbounds nuw %"class.llvm::ArrayRef.465", ptr %3, i32 0, i32 1
  %7 = load i64, ptr %6, align 8
  %8 = getelementptr inbounds i32, ptr %5, i64 %7
  ret ptr %8
}

; Function Attrs: mustprogress nounwind uwtable
define linkonce_odr hidden noundef ptr @_ZNK4llvm8ArrayRefIiE5beginEv(ptr noundef nonnull align 8 dereferenceable(16) %0) #1 comdat align 2 {
  %2 = alloca ptr, align 8
  store ptr %0, ptr %2, align 8
  %3 = load ptr, ptr %2, align 8
  %4 = getelementptr inbounds nuw %"class.llvm::ArrayRef.465", ptr %3, i32 0, i32 0
  %5 = load ptr, ptr %4, align 8
  ret ptr %5
}

; Function Attrs: mustprogress nounwind uwtable
define internal noundef ptr @"_ZSt13__find_if_notIPKiN9__gnu_cxx5__ops10_Iter_predIZNK4llvm8Constant13getSplatValueEbE3$_0EEET_S9_S9_T0_"(ptr noundef %0, ptr noundef %1) #1 {
  %3 = alloca %"struct.__gnu_cxx::__ops::_Iter_pred", align 1
  %4 = alloca ptr, align 8
  %5 = alloca ptr, align 8
  %6 = alloca %"struct.__gnu_cxx::__ops::_Iter_pred", align 1
  store ptr %0, ptr %4, align 8
  store ptr %1, ptr %5, align 8
  %7 = load ptr, ptr %4, align 8
  %8 = load ptr, ptr %5, align 8
  call void @llvm.memcpy.p0.p0.i64(ptr align 1 %6, ptr align 1 %3, i64 1, i1 false)
  call void @"_ZN9__gnu_cxx5__ops8__negateIZNK4llvm8Constant13getSplatValueEbE3$_0EENS0_12_Iter_negateIT_EENS0_10_Iter_predIS6_EE"()
  call void @_ZSt19__iterator_categoryIPKiENSt15iterator_traitsIT_E17iterator_categoryERKS3_(ptr noundef nonnull align 8 dereferenceable(8) %4)
  %9 = call noundef ptr @"_ZSt9__find_ifIPKiN9__gnu_cxx5__ops12_Iter_negateIZNK4llvm8Constant13getSplatValueEbE3$_0EEET_S9_S9_T0_St26random_access_iterator_tag"(ptr noundef %7, ptr noundef %8)
  ret ptr %9
}

; Function Attrs: mustprogress nounwind uwtable
define internal void @"_ZN9__gnu_cxx5__ops11__pred_iterIZNK4llvm8Constant13getSplatValueEbE3$_0EENS0_10_Iter_predIT_EES6_"() #1 {
  %1 = alloca %"struct.__gnu_cxx::__ops::_Iter_pred", align 1
  call void @"_ZN9__gnu_cxx5__ops10_Iter_predIZNK4llvm8Constant13getSplatValueEbE3$_0EC2ES4_"(ptr noundef nonnull align 1 dereferenceable(1) %1)
  ret void
}

; Function Attrs: mustprogress nounwind uwtable
define linkonce_odr noundef ptr @_ZSt3endIN4llvm8ArrayRefIiEEEDTcldtfp_3endEERT_(ptr noundef nonnull align 8 dereferenceable(16) %0) #1 comdat {
  %2 = alloca ptr, align 8
  store ptr %0, ptr %2, align 8
  %3 = load ptr, ptr %2, align 8
  %4 = call noundef ptr @_ZNK4llvm8ArrayRefIiE3endEv(ptr noundef nonnull align 8 dereferenceable(16) %3)
  ret ptr %4
}

; Function Attrs: mustprogress nounwind uwtable
define linkonce_odr noundef ptr @_ZSt5beginIN4llvm8ArrayRefIiEEEDTcldtfp_5beginEERT_(ptr noundef nonnull align 8 dereferenceable(16) %0) #1 comdat {
  %2 = alloca ptr, align 8
  store ptr %0, ptr %2, align 8
  %3 = load ptr, ptr %2, align 8
  %4 = call noundef ptr @_ZNK4llvm8ArrayRefIiE5beginEv(ptr noundef nonnull align 8 dereferenceable(16) %3)
  ret ptr %4
}

; Function Attrs: mustprogress nounwind uwtable
define internal noundef ptr @"_ZSt11find_if_notIPKiZNK4llvm8Constant13getSplatValueEbE3$_0ET_S5_S5_T0_"(ptr noundef %0, ptr noundef %1) #1 {
  %3 = alloca ptr, align 8
  %4 = alloca ptr, align 8
  store ptr %0, ptr %3, align 8
  store ptr %1, ptr %4, align 8
  %5 = load ptr, ptr %3, align 8
  %6 = load ptr, ptr %4, align 8
  call void @"_ZN9__gnu_cxx5__ops11__pred_iterIZNK4llvm8Constant13getSplatValueEbE3$_0EENS0_10_Iter_predIT_EES6_"()
  %7 = call noundef ptr @"_ZSt13__find_if_notIPKiN9__gnu_cxx5__ops10_Iter_predIZNK4llvm8Constant13getSplatValueEbE3$_0EEET_S9_S9_T0_"(ptr noundef %5, ptr noundef %6)
  ret ptr %7
}

; Function Attrs: mustprogress nounwind uwtable
define linkonce_odr hidden noundef ptr @_ZN4llvm10adl_detail8end_implIRNS_8ArrayRefIiEEEEDTcl3endclsr3stdE7forwardIT_Efp_EEEOS5_(ptr noundef nonnull align 8 dereferenceable(16) %0) #1 comdat {
  %2 = alloca ptr, align 8
  store ptr %0, ptr %2, align 8
  %3 = load ptr, ptr %2, align 8
  %4 = call noundef ptr @_ZSt3endIN4llvm8ArrayRefIiEEEDTcldtfp_3endEERT_(ptr noundef nonnull align 8 dereferenceable(16) %3)
  ret ptr %4
}

; Function Attrs: mustprogress nounwind uwtable
define linkonce_odr hidden noundef ptr @_ZN4llvm10adl_detail10begin_implIRNS_8ArrayRefIiEEEEDTcl5beginclsr3stdE7forwardIT_Efp_EEEOS5_(ptr noundef nonnull align 8 dereferenceable(16) %0) #1 comdat {
  %2 = alloca ptr, align 8
  store ptr %0, ptr %2, align 8
  %3 = load ptr, ptr %2, align 8
  %4 = call noundef ptr @_ZSt5beginIN4llvm8ArrayRefIiEEEDTcldtfp_5beginEERT_(ptr noundef nonnull align 8 dereferenceable(16) %3)
  ret ptr %4
}

; Function Attrs: mustprogress nounwind uwtable
define internal noundef zeroext i1 @"_ZSt6all_ofIPKiZNK4llvm8Constant13getSplatValueEbE3$_0EbT_S5_T0_"(ptr noundef %0, ptr noundef %1) #1 {
  %3 = alloca ptr, align 8
  %4 = alloca ptr, align 8
  store ptr %0, ptr %3, align 8
  store ptr %1, ptr %4, align 8
  %5 = load ptr, ptr %4, align 8
  %6 = load ptr, ptr %3, align 8
  %7 = load ptr, ptr %4, align 8
  %8 = call noundef ptr @"_ZSt11find_if_notIPKiZNK4llvm8Constant13getSplatValueEbE3$_0ET_S5_S5_T0_"(ptr noundef %6, ptr noundef %7)
  %9 = icmp eq ptr %5, %8
  ret i1 %9
}

; Function Attrs: mustprogress nounwind uwtable
define linkonce_odr hidden noundef ptr @_ZN4llvm7adl_endIRNS_8ArrayRefIiEEEEDTclsr10adl_detailE8end_implclsr3stdE7forwardIT_Efp_EEEOS4_(ptr noundef nonnull align 8 dereferenceable(16) %0) #1 comdat {
  %2 = alloca ptr, align 8
  store ptr %0, ptr %2, align 8
  %3 = load ptr, ptr %2, align 8
  %4 = call noundef ptr @_ZN4llvm10adl_detail8end_implIRNS_8ArrayRefIiEEEEDTcl3endclsr3stdE7forwardIT_Efp_EEEOS5_(ptr noundef nonnull align 8 dereferenceable(16) %3)
  ret ptr %4
}

; Function Attrs: mustprogress nounwind uwtable
define linkonce_odr hidden noundef ptr @_ZN4llvm9adl_beginIRNS_8ArrayRefIiEEEEDTclsr10adl_detailE10begin_implclsr3stdE7forwardIT_Efp_EEEOS4_(ptr noundef nonnull align 8 dereferenceable(16) %0) #1 comdat {
  %2 = alloca ptr, align 8
  store ptr %0, ptr %2, align 8
  %3 = load ptr, ptr %2, align 8
  %4 = call noundef ptr @_ZN4llvm10adl_detail10begin_implIRNS_8ArrayRefIiEEEEDTcl5beginclsr3stdE7forwardIT_Efp_EEEOS5_(ptr noundef nonnull align 8 dereferenceable(16) %3)
  ret ptr %4
}

; Function Attrs: mustprogress nounwind uwtable
define internal noundef zeroext i1 @"_ZN4llvm6all_ofIRNS_8ArrayRefIiEEZNKS_8Constant13getSplatValueEbE3$_0EEbOT_T0_"(ptr noundef nonnull align 8 dereferenceable(16) %0) #1 {
  %2 = alloca ptr, align 8
  store ptr %0, ptr %2, align 8
  %3 = load ptr, ptr %2, align 8
  %4 = call noundef ptr @_ZN4llvm9adl_beginIRNS_8ArrayRefIiEEEEDTclsr10adl_detailE10begin_implclsr3stdE7forwardIT_Efp_EEEOS4_(ptr noundef nonnull align 8 dereferenceable(16) %3)
  %5 = load ptr, ptr %2, align 8
  %6 = call noundef ptr @_ZN4llvm7adl_endIRNS_8ArrayRefIiEEEEDTclsr10adl_detailE8end_implclsr3stdE7forwardIT_Efp_EEEOS4_(ptr noundef nonnull align 8 dereferenceable(16) %5)
  %7 = call noundef zeroext i1 @"_ZSt6all_ofIPKiZNK4llvm8Constant13getSplatValueEbE3$_0EbT_S5_T0_"(ptr noundef %4, ptr noundef %6)
  ret i1 %7
}