; Function Attrs: mustprogress nofree norecurse nosync nounwind willreturn memory(argmem: read) uwtable
define internal fastcc noundef zeroext i1 @"_ZN4llvm6all_ofIRNS_8ArrayRefIiEEZNKS_8Constant13getSplatValueEbE3$_0EEbOT_T0_"(ptr readonly %.0.val, i64 %.8.val) unnamed_addr #10 {
  %.idx1 = shl nsw i64 %.8.val, 2
  %1 = getelementptr inbounds i8, ptr %.0.val, i64 %.idx1
  %2 = ashr i64 %.8.val, 2
  %3 = icmp sgt i64 %2, 0
  br i1 %3, label %.lr.ph.preheader.i.i.i.i, label %._crit_edge.i.i.i.i

.lr.ph.preheader.i.i.i.i:                         ; preds = %0
  %4 = and i64 %.idx1, -16
  %scevgep.i.i.i.i = getelementptr i8, ptr %.0.val, i64 %4
  br label %.lr.ph.i.i.i.i

.lr.ph.i.i.i.i:                                   ; preds = %11, %.lr.ph.preheader.i.i.i.i
  %.050.i.i.i.i = phi i64 [ %13, %11 ], [ %2, %.lr.ph.preheader.i.i.i.i ]
  %.02949.i.i.i.i = phi ptr [ %12, %11 ], [ %.0.val, %.lr.ph.preheader.i.i.i.i ]
  %.029.val.i.i.i.i = load i32, ptr %.02949.i.i.i.i, align 4
  %.not35.i.i.i.i = icmp eq i32 %.029.val.i.i.i.i, 0
  br i1 %.not35.i.i.i.i, label %5, label %"_ZSt6all_ofIPKiZNK4llvm8Constant13getSplatValueEbE3$_0EbT_S5_T0_.exit"

5:                                                ; preds = %.lr.ph.i.i.i.i
  %6 = getelementptr inbounds i8, ptr %.02949.i.i.i.i, i64 4
  %.val.i.i.i.i = load i32, ptr %6, align 4
  %.not36.i.i.i.i = icmp eq i32 %.val.i.i.i.i, 0
  br i1 %.not36.i.i.i.i, label %7, label %"_ZSt6all_ofIPKiZNK4llvm8Constant13getSplatValueEbE3$_0EbT_S5_T0_.exit.loopexit.split.loop.exit"

7:                                                ; preds = %5
  %8 = getelementptr inbounds i8, ptr %.02949.i.i.i.i, i64 8
  %.val30.i.i.i.i = load i32, ptr %8, align 4
  %.not37.i.i.i.i = icmp eq i32 %.val30.i.i.i.i, 0
  br i1 %.not37.i.i.i.i, label %9, label %"_ZSt6all_ofIPKiZNK4llvm8Constant13getSplatValueEbE3$_0EbT_S5_T0_.exit.loopexit.split.loop.exit14"

9:                                                ; preds = %7
  %10 = getelementptr inbounds i8, ptr %.02949.i.i.i.i, i64 12
  %.val31.i.i.i.i = load i32, ptr %10, align 4
  %.not38.i.i.i.i = icmp eq i32 %.val31.i.i.i.i, 0
  br i1 %.not38.i.i.i.i, label %11, label %"_ZSt6all_ofIPKiZNK4llvm8Constant13getSplatValueEbE3$_0EbT_S5_T0_.exit.loopexit.split.loop.exit16"

11:                                               ; preds = %9
  %12 = getelementptr inbounds i8, ptr %.02949.i.i.i.i, i64 16
  %13 = add nsw i64 %.050.i.i.i.i, -1
  %14 = icmp sgt i64 %.050.i.i.i.i, 1
  br i1 %14, label %.lr.ph.i.i.i.i, label %._crit_edge.loopexit.i.i.i.i, !llvm.loop !142

._crit_edge.loopexit.i.i.i.i:                     ; preds = %11
  %15 = and i64 %.8.val, 3
  br label %._crit_edge.i.i.i.i

._crit_edge.i.i.i.i:                              ; preds = %._crit_edge.loopexit.i.i.i.i, %0
  %.pre-phi56.i.i.i.i = phi i64 [ %15, %._crit_edge.loopexit.i.i.i.i ], [ %.8.val, %0 ]
  %.029.lcssa.i.i.i.i = phi ptr [ %scevgep.i.i.i.i, %._crit_edge.loopexit.i.i.i.i ], [ %.0.val, %0 ]
  switch i64 %.pre-phi56.i.i.i.i, label %23 [
    i64 3, label %16
    i64 2, label %19
    i64 1, label %22
  ]

16:                                               ; preds = %._crit_edge.i.i.i.i
  %.029.val32.i.i.i.i = load i32, ptr %.029.lcssa.i.i.i.i, align 4
  %.not.i.i.i.i = icmp eq i32 %.029.val32.i.i.i.i, 0
  br i1 %.not.i.i.i.i, label %17, label %"_ZSt6all_ofIPKiZNK4llvm8Constant13getSplatValueEbE3$_0EbT_S5_T0_.exit"

17:                                               ; preds = %16
  %18 = getelementptr inbounds i8, ptr %.029.lcssa.i.i.i.i, i64 4
  br label %19

19:                                               ; preds = %17, %._crit_edge.i.i.i.i
  %.1.i.i.i.i = phi ptr [ %.029.lcssa.i.i.i.i, %._crit_edge.i.i.i.i ], [ %18, %17 ]
  %.1.val.i.i.i.i = load i32, ptr %.1.i.i.i.i, align 4
  %.not33.i.i.i.i = icmp eq i32 %.1.val.i.i.i.i, 0
  br i1 %.not33.i.i.i.i, label %20, label %"_ZSt6all_ofIPKiZNK4llvm8Constant13getSplatValueEbE3$_0EbT_S5_T0_.exit"

20:                                               ; preds = %19
  %21 = getelementptr inbounds i8, ptr %.1.i.i.i.i, i64 4
  br label %22

22:                                               ; preds = %20, %._crit_edge.i.i.i.i
  %.2.i.i.i.i = phi ptr [ %.029.lcssa.i.i.i.i, %._crit_edge.i.i.i.i ], [ %21, %20 ]
  %.2.val.i.i.i.i = load i32, ptr %.2.i.i.i.i, align 4
  %.not34.i.i.i.i = icmp eq i32 %.2.val.i.i.i.i, 0
  br i1 %.not34.i.i.i.i, label %23, label %"_ZSt6all_ofIPKiZNK4llvm8Constant13getSplatValueEbE3$_0EbT_S5_T0_.exit"

23:                                               ; preds = %22, %._crit_edge.i.i.i.i
  br label %"_ZSt6all_ofIPKiZNK4llvm8Constant13getSplatValueEbE3$_0EbT_S5_T0_.exit"

"_ZSt6all_ofIPKiZNK4llvm8Constant13getSplatValueEbE3$_0EbT_S5_T0_.exit.loopexit.split.loop.exit": ; preds = %5
  %24 = getelementptr inbounds i8, ptr %.02949.i.i.i.i, i64 4
  br label %"_ZSt6all_ofIPKiZNK4llvm8Constant13getSplatValueEbE3$_0EbT_S5_T0_.exit"

"_ZSt6all_ofIPKiZNK4llvm8Constant13getSplatValueEbE3$_0EbT_S5_T0_.exit.loopexit.split.loop.exit14": ; preds = %7
  %25 = getelementptr inbounds i8, ptr %.02949.i.i.i.i, i64 8
  br label %"_ZSt6all_ofIPKiZNK4llvm8Constant13getSplatValueEbE3$_0EbT_S5_T0_.exit"

"_ZSt6all_ofIPKiZNK4llvm8Constant13getSplatValueEbE3$_0EbT_S5_T0_.exit.loopexit.split.loop.exit16": ; preds = %9
  %26 = getelementptr inbounds i8, ptr %.02949.i.i.i.i, i64 12
  br label %"_ZSt6all_ofIPKiZNK4llvm8Constant13getSplatValueEbE3$_0EbT_S5_T0_.exit"

"_ZSt6all_ofIPKiZNK4llvm8Constant13getSplatValueEbE3$_0EbT_S5_T0_.exit": ; preds = %.lr.ph.i.i.i.i, %"_ZSt6all_ofIPKiZNK4llvm8Constant13getSplatValueEbE3$_0EbT_S5_T0_.exit.loopexit.split.loop.exit", %"_ZSt6all_ofIPKiZNK4llvm8Constant13getSplatValueEbE3$_0EbT_S5_T0_.exit.loopexit.split.loop.exit14", %"_ZSt6all_ofIPKiZNK4llvm8Constant13getSplatValueEbE3$_0EbT_S5_T0_.exit.loopexit.split.loop.exit16", %16, %19, %22, %23
  %.028.i.i.i.i = phi ptr [ %1, %23 ], [ %.029.lcssa.i.i.i.i, %16 ], [ %.1.i.i.i.i, %19 ], [ %.2.i.i.i.i, %22 ], [ %24, %"_ZSt6all_ofIPKiZNK4llvm8Constant13getSplatValueEbE3$_0EbT_S5_T0_.exit.loopexit.split.loop.exit" ], [ %25, %"_ZSt6all_ofIPKiZNK4llvm8Constant13getSplatValueEbE3$_0EbT_S5_T0_.exit.loopexit.split.loop.exit14" ], [ %26, %"_ZSt6all_ofIPKiZNK4llvm8Constant13getSplatValueEbE3$_0EbT_S5_T0_.exit.loopexit.split.loop.exit16" ], [ %.02949.i.i.i.i, %.lr.ph.i.i.i.i ]
  %27 = icmp eq ptr %1, %.028.i.i.i.i
  ret i1 %27
}